target datalayout = "e-m:e-p270:32:32-p271:32:32-p272:64:64-i64:64-i128:128-f80:128-n8:16:32:64-S128"
target triple = "x86_64-pc-linux-gnu"

%struct.permInfo = type { i32, ptr, i32, i32, ptr, i32, i32 }

; Function Attrs: nounwind uwtable
define i32 @oneBitPosition(i32 noundef %0, i32 noundef %1) #0 {
  %3 = alloca i32, align 4
  %4 = alloca i32, align 4
  %5 = alloca i32, align 4
  %6 = alloca i32, align 4
  %7 = alloca i32, align 4
  store i32 %0, ptr %4, align 4, !tbaa !11
  store i32 %1, ptr %5, align 4, !tbaa !11
  call void @llvm.lifetime.start.p0(i64 4, ptr %6) #7
  store i32 0, ptr %6, align 4, !tbaa !11
  br label %8

8:                                                ; preds = %21, %2
  %9 = load i32, ptr %6, align 4, !tbaa !11
  %10 = load i32, ptr %5, align 4, !tbaa !11
  %11 = icmp slt i32 %9, %10
  br i1 %11, label %12, label %24

12:                                               ; preds = %8
  %13 = load i32, ptr %4, align 4, !tbaa !11
  %14 = load i32, ptr %6, align 4, !tbaa !11
  %15 = ashr i32 %13, %14
  %16 = and i32 %15, 1
  %17 = icmp ne i32 %16, 0
  br i1 %17, label %18, label %20

18:                                               ; preds = %12
  %19 = load i32, ptr %6, align 4, !tbaa !11
  store i32 %19, ptr %3, align 4
  store i32 1, ptr %7, align 4
  br label %25

20:                                               ; preds = %12
  br label %21

21:                                               ; preds = %20
  %22 = load i32, ptr %6, align 4, !tbaa !11
  %23 = add nsw i32 %22, 1
  store i32 %23, ptr %6, align 4, !tbaa !11
  br label %8, !llvm.loop !28

24:                                               ; preds = %8
  store i32 -1, ptr %3, align 4
  store i32 1, ptr %7, align 4
  br label %25

25:                                               ; preds = %24, %18
  call void @llvm.lifetime.end.p0(i64 4, ptr %6) #7
  %26 = load i32, ptr %3, align 4
  ret i32 %26
}

; Function Attrs: nounwind uwtable
define void @fillInFlipArray(ptr noundef %0) #0 {
  %2 = alloca ptr, align 8
  %3 = alloca i32, align 4
  %4 = alloca i32, align 4
  %5 = alloca i32, align 4
  store ptr %0, ptr %2, align 8, !tbaa !3
  call void @llvm.lifetime.start.p0(i64 4, ptr %3) #7
  call void @llvm.lifetime.start.p0(i64 4, ptr %4) #7
  store i32 0, ptr %4, align 4, !tbaa !11
  call void @llvm.lifetime.start.p0(i64 4, ptr %5) #7
  store i32 1, ptr %3, align 4, !tbaa !11
  br label %6

6:                                                ; preds = %35, %1
  %7 = load i32, ptr %3, align 4, !tbaa !11
  %8 = load ptr, ptr %2, align 8, !tbaa !3
  %9 = getelementptr inbounds nuw %struct.permInfo, ptr %8, i32 0, i32 6
  %10 = load i32, ptr %9, align 4, !tbaa !29
  %11 = icmp sle i32 %7, %10
  br i1 %11, label %12, label %38

12:                                               ; preds = %6
  %13 = load i32, ptr %3, align 4, !tbaa !11
  %14 = load i32, ptr %3, align 4, !tbaa !11
  %15 = ashr i32 %14, 1
  %16 = xor i32 %13, %15
  store i32 %16, ptr %5, align 4, !tbaa !11
  %17 = load i32, ptr %4, align 4, !tbaa !11
  %18 = load i32, ptr %5, align 4, !tbaa !11
  %19 = xor i32 %17, %18
  %20 = load ptr, ptr %2, align 8, !tbaa !3
  %21 = getelementptr inbounds nuw %struct.permInfo, ptr %20, i32 0, i32 0
  %22 = load i32, ptr %21, align 8, !tbaa !24
  %23 = call i32 @oneBitPosition(i32 noundef %19, i32 noundef %22)
  %24 = load ptr, ptr %2, align 8, !tbaa !3
  %25 = getelementptr inbounds nuw %struct.permInfo, ptr %24, i32 0, i32 4
  %26 = load ptr, ptr %25, align 8, !tbaa !30
  %27 = load ptr, ptr %2, align 8, !tbaa !3
  %28 = getelementptr inbounds nuw %struct.permInfo, ptr %27, i32 0, i32 6
  %29 = load i32, ptr %28, align 4, !tbaa !29
  %30 = load i32, ptr %3, align 4, !tbaa !11
  %31 = sub nsw i32 %29, %30
  %32 = sext i32 %31 to i64
  %33 = getelementptr inbounds i32, ptr %26, i64 %32
  store i32 %23, ptr %33, align 4, !tbaa !11
  %34 = load i32, ptr %5, align 4, !tbaa !11
  store i32 %34, ptr %4, align 4, !tbaa !11
  br label %35

35:                                               ; preds = %12
  %36 = load i32, ptr %3, align 4, !tbaa !11
  %37 = add nsw i32 %36, 1
  store i32 %37, ptr %3, align 4, !tbaa !11
  br label %6, !llvm.loop !31

38:                                               ; preds = %6
  call void @llvm.lifetime.end.p0(i64 4, ptr %5) #7
  call void @llvm.lifetime.end.p0(i64 4, ptr %4) #7
  call void @llvm.lifetime.end.p0(i64 4, ptr %3) #7
  ret void
}