; Function Attrs: nofree norecurse nosync nounwind memory(write, argmem: readwrite, inaccessiblemem: none) uwtable
define void @fillInFlipArray(ptr noundef readonly captures(none) %0) local_unnamed_addr #3 {
  %2 = getelementptr inbounds nuw i8, ptr %0, i64 36
  %3 = load i32, ptr %2, align 4, !tbaa !27
  %.not12 = icmp slt i32 %3, 1
  br i1 %.not12, label %._crit_edge, label %.lr.ph

.lr.ph:                                           ; preds = %1
  %4 = getelementptr inbounds nuw i8, ptr %0, i64 24
  %5 = load ptr, ptr %4, align 8, !tbaa !28
  br label %6

6:                                                ; preds = %.lr.ph, %oneBitPosition.exit
  %7 = phi i32 [ %3, %.lr.ph ], [ %21, %oneBitPosition.exit ]
  %.014 = phi i32 [ 1, %.lr.ph ], [ %20, %oneBitPosition.exit ]
  %.01113 = phi i32 [ 0, %.lr.ph ], [ %9, %oneBitPosition.exit ]
  %8 = lshr i32 %.014, 1
  %9 = xor i32 %8, %.014
  %10 = xor i32 %9, %.01113
  %11 = load i32, ptr %0, align 8, !tbaa !23
  %12 = icmp sgt i32 %11, 0
  br i1 %12, label %.lr.ph.i, label %oneBitPosition.exit

.lr.ph.i:                                         ; preds = %6, %15
  %.08.i = phi i32 [ %16, %15 ], [ 0, %6 ]
  %13 = shl nuw i32 1, %.08.i
  %14 = and i32 %13, %10
  %.not.i = icmp eq i32 %14, 0
  br i1 %.not.i, label %15, label %oneBitPosition.exit

15:                                               ; preds = %.lr.ph.i
  %16 = add nuw nsw i32 %.08.i, 1
  %exitcond.not.i = icmp eq i32 %16, %11
  br i1 %exitcond.not.i, label %oneBitPosition.exit, label %.lr.ph.i, !llvm.loop !26

oneBitPosition.exit:                              ; preds = %.lr.ph.i, %15, %6
  %.07.i = phi i32 [ -1, %6 ], [ %.08.i, %.lr.ph.i ], [ -1, %15 ]
  %17 = sub nsw i32 %7, %.014
  %18 = sext i32 %17 to i64
  %19 = getelementptr inbounds i32, ptr %5, i64 %18
  store i32 %.07.i, ptr %19, align 4, !tbaa !15
  %20 = add nuw nsw i32 %.014, 1
  %21 = load i32, ptr %2, align 4, !tbaa !27
  %.not.not = icmp slt i32 %.014, %21
  br i1 %.not.not, label %6, label %._crit_edge, !llvm.loop !29

._crit_edge:                                      ; preds = %oneBitPosition.exit, %1
  ret void
}